; Function Attrs: nounwind uwtable
define internal fastcc range(i32 2, 6) i32 @exec_command_s(ptr noundef %0, i1 noundef zeroext %1) unnamed_addr #0 {
  %3 = alloca ptr, align 8
  br i1 %1, label %4, label %24

4:                                                ; preds = %2
  call void @llvm.lifetime.start.p0(i64 8, ptr nonnull %3) #16
  %5 = tail call ptr @psql_scan_slash_option(ptr noundef %0, i32 noundef 0, ptr noundef null, i1 noundef zeroext true) #16
  store ptr %5, ptr %3, align 8
  call void @expand_tilde(ptr noundef nonnull %3) #16
  %6 = load ptr, ptr %3, align 8
  %7 = load i16, ptr getelementptr inbounds nuw (i8, ptr @pset, i64 66), align 2
  %8 = call zeroext i1 @printHistory(ptr noundef %6, i16 noundef zeroext %7) #16
  br i1 %8, label %9, label %thread-pre-split

9:                                                ; preds = %4
  %10 = load i8, ptr getelementptr inbounds nuw (i8, ptr @pset, i64 402), align 2, !range !4, !noundef !5
  %11 = trunc nuw i8 %10 to i1
  %12 = load ptr, ptr %3, align 8
  %13 = icmp eq ptr %12, null
  %or.cond.not = select i1 %11, i1 true, i1 %13
  br i1 %or.cond.not, label %16, label %14

14:                                               ; preds = %9
  %15 = call i32 (ptr, ...) @pg_printf(ptr noundef nonnull @.str.267, ptr noundef nonnull %12) #16
  br label %thread-pre-split

thread-pre-split:                                 ; preds = %4, %14
  %.pr = load ptr, ptr %3, align 8
  br label %16

16:                                               ; preds = %thread-pre-split, %9
  %17 = phi ptr [ %.pr, %thread-pre-split ], [ %12, %9 ]
  %.not = icmp eq ptr %17, null
  br i1 %.not, label %18, label %21

18:                                               ; preds = %16
  %19 = load ptr, ptr @stdout, align 8
  %20 = call i32 @putc(i32 noundef 10, ptr noundef %19)
  %.pre = load ptr, ptr %3, align 8
  br label %21

21:                                               ; preds = %18, %16
  %22 = phi ptr [ %.pre, %18 ], [ %17, %16 ]
  call void @free(ptr noundef %22) #16
  call void @llvm.lifetime.end.p0(i64 8, ptr nonnull %3) #16
  %23 = select i1 %8, i32 2, i32 5
  br label %ignore_slash_options.exit

24:                                               ; preds = %2
  %25 = tail call ptr @psql_scan_slash_option(ptr noundef %0, i32 noundef 0, ptr noundef null, i1 noundef zeroext false) #16
  %.not2.i = icmp eq ptr %25, null
  br i1 %.not2.i, label %ignore_slash_options.exit, label %.lr.ph.i

.lr.ph.i:                                         ; preds = %24, %.lr.ph.i
  %26 = phi ptr [ %27, %.lr.ph.i ], [ %25, %24 ]
  tail call void @free(ptr noundef nonnull %26) #16
  %27 = tail call ptr @psql_scan_slash_option(ptr noundef %0, i32 noundef 0, ptr noundef null, i1 noundef zeroext false) #16
  %.not.i = icmp eq ptr %27, null
  br i1 %.not.i, label %ignore_slash_options.exit, label %.lr.ph.i, !llvm.loop !10

ignore_slash_options.exit:                        ; preds = %.lr.ph.i, %24, %21
  %.0 = phi i32 [ %23, %21 ], [ 2, %24 ], [ 2, %.lr.ph.i ]
  ret i32 %.0
}